; Function Attrs: nounwind uwtable
define ptr @l_Lean_instMonadCacheExceptTOfMonad___rarg___lambda__3(ptr noundef %0, ptr noundef %1, ptr noundef %2, ptr noundef %3) #0 {
  %5 = getelementptr inbounds nuw i8, ptr %0, i64 16
  %6 = load ptr, ptr %5, align 8, !tbaa !4
  %7 = ptrtoint ptr %6 to i64
  %8 = and i64 %7, 1
  %.not = icmp eq i64 %8, 0
  br i1 %.not, label %9, label %lean_inc.exit21

9:                                                ; preds = %4
  %.val.i = load i32, ptr %6, align 4, !tbaa !8
  %10 = icmp sgt i32 %.val.i, 0
  br i1 %10, label %11, label %13, !prof !11

11:                                               ; preds = %9
  %12 = add nuw i32 %.val.i, 1
  store i32 %12, ptr %6, align 4, !tbaa !8
  br label %lean_inc.exit21

13:                                               ; preds = %9
  %.not.i31 = icmp eq i32 %.val.i, 0
  br i1 %.not.i31, label %lean_inc.exit21, label %14

14:                                               ; preds = %13
  tail call void @lean_inc_ref_cold(ptr noundef nonnull %6) #4
  br label %lean_inc.exit21

lean_inc.exit21:                                  ; preds = %14, %13, %11, %4
  %15 = ptrtoint ptr %0 to i64
  %16 = and i64 %15, 1
  %.not41 = icmp eq i64 %16, 0
  br i1 %.not41, label %17, label %lean_dec.exit24

17:                                               ; preds = %lean_inc.exit21
  %18 = load i32, ptr %0, align 4, !tbaa !8
  %19 = icmp sgt i32 %18, 1
  br i1 %19, label %20, label %22, !prof !11

20:                                               ; preds = %17
  %21 = add nsw i32 %18, -1
  store i32 %21, ptr %0, align 4, !tbaa !8
  br label %lean_dec.exit24

22:                                               ; preds = %17
  %.not.i = icmp eq i32 %18, 0
  br i1 %.not.i, label %lean_dec.exit24, label %23

23:                                               ; preds = %22
  tail call void @lean_dec_ref_cold(ptr noundef nonnull %0) #4
  br label %lean_dec.exit24

lean_dec.exit24:                                  ; preds = %23, %22, %20, %lean_inc.exit21
  %24 = tail call ptr @lean_apply_2(ptr noundef %6, ptr noundef %2, ptr noundef %3) #4
  %25 = getelementptr inbounds nuw i8, ptr %1, i64 8
  %26 = load ptr, ptr %25, align 8, !tbaa !4
  %27 = ptrtoint ptr %26 to i64
  %28 = and i64 %27, 1
  %.not42 = icmp eq i64 %28, 0
  br i1 %.not42, label %29, label %lean_inc.exit20

29:                                               ; preds = %lean_dec.exit24
  %.val.i32 = load i32, ptr %26, align 4, !tbaa !8
  %30 = icmp sgt i32 %.val.i32, 0
  br i1 %30, label %31, label %33, !prof !11

31:                                               ; preds = %29
  %32 = add nuw i32 %.val.i32, 1
  store i32 %32, ptr %26, align 4, !tbaa !8
  br label %lean_inc.exit20

33:                                               ; preds = %29
  %.not.i33 = icmp eq i32 %.val.i32, 0
  br i1 %.not.i33, label %lean_inc.exit20, label %34

34:                                               ; preds = %33
  tail call void @lean_inc_ref_cold(ptr noundef nonnull %26) #4
  br label %lean_inc.exit20

lean_inc.exit20:                                  ; preds = %34, %33, %31, %lean_dec.exit24
  %35 = ptrtoint ptr %1 to i64
  %36 = and i64 %35, 1
  %.not43 = icmp eq i64 %36, 0
  br i1 %.not43, label %37, label %lean_dec.exit23

37:                                               ; preds = %lean_inc.exit20
  %38 = load i32, ptr %1, align 4, !tbaa !8
  %39 = icmp sgt i32 %38, 1
  br i1 %39, label %40, label %42, !prof !11

40:                                               ; preds = %37
  %41 = add nsw i32 %38, -1
  store i32 %41, ptr %1, align 4, !tbaa !8
  br label %lean_dec.exit23

42:                                               ; preds = %37
  %.not.i25 = icmp eq i32 %38, 0
  br i1 %.not.i25, label %lean_dec.exit23, label %43

43:                                               ; preds = %42
  tail call void @lean_dec_ref_cold(ptr noundef nonnull %1) #4
  br label %lean_dec.exit23

lean_dec.exit23:                                  ; preds = %43, %42, %40, %lean_inc.exit20
  %44 = getelementptr inbounds nuw i8, ptr %26, i64 8
  %45 = load ptr, ptr %44, align 8, !tbaa !4
  %46 = ptrtoint ptr %45 to i64
  %47 = and i64 %46, 1
  %.not44 = icmp eq i64 %47, 0
  br i1 %.not44, label %48, label %lean_inc.exit19

48:                                               ; preds = %lean_dec.exit23
  %.val.i35 = load i32, ptr %45, align 4, !tbaa !8
  %49 = icmp sgt i32 %.val.i35, 0
  br i1 %49, label %50, label %52, !prof !11

50:                                               ; preds = %48
  %51 = add nuw i32 %.val.i35, 1
  store i32 %51, ptr %45, align 4, !tbaa !8
  br label %lean_inc.exit19

52:                                               ; preds = %48
  %.not.i36 = icmp eq i32 %.val.i35, 0
  br i1 %.not.i36, label %lean_inc.exit19, label %53

53:                                               ; preds = %52
  tail call void @lean_inc_ref_cold(ptr noundef nonnull %45) #4
  br label %lean_inc.exit19

lean_inc.exit19:                                  ; preds = %53, %52, %50, %lean_dec.exit23
  br i1 %.not42, label %54, label %lean_dec.exit22

54:                                               ; preds = %lean_inc.exit19
  %55 = load i32, ptr %26, align 4, !tbaa !8
  %56 = icmp sgt i32 %55, 1
  br i1 %56, label %57, label %59, !prof !11

57:                                               ; preds = %54
  %58 = add nsw i32 %55, -1
  store i32 %58, ptr %26, align 4, !tbaa !8
  br label %lean_dec.exit22

59:                                               ; preds = %54
  %.not.i27 = icmp eq i32 %55, 0
  br i1 %.not.i27, label %lean_dec.exit22, label %60

60:                                               ; preds = %59
  tail call void @lean_dec_ref_cold(ptr noundef nonnull %26) #4
  br label %lean_dec.exit22

lean_dec.exit22:                                  ; preds = %60, %59, %57, %lean_inc.exit19
  %61 = getelementptr inbounds nuw i8, ptr %45, i64 8
  %62 = load ptr, ptr %61, align 8, !tbaa !4
  %63 = ptrtoint ptr %62 to i64
  %64 = and i64 %63, 1
  %.not45 = icmp eq i64 %64, 0
  br i1 %.not45, label %65, label %lean_inc.exit

65:                                               ; preds = %lean_dec.exit22
  %.val.i38 = load i32, ptr %62, align 4, !tbaa !8
  %66 = icmp sgt i32 %.val.i38, 0
  br i1 %66, label %67, label %69, !prof !11

67:                                               ; preds = %65
  %68 = add nuw i32 %.val.i38, 1
  store i32 %68, ptr %62, align 4, !tbaa !8
  br label %lean_inc.exit

69:                                               ; preds = %65
  %.not.i39 = icmp eq i32 %.val.i38, 0
  br i1 %.not.i39, label %lean_inc.exit, label %70

70:                                               ; preds = %69
  tail call void @lean_inc_ref_cold(ptr noundef nonnull %62) #4
  br label %lean_inc.exit

lean_inc.exit:                                    ; preds = %70, %69, %67, %lean_dec.exit22
  br i1 %.not44, label %71, label %lean_dec.exit

71:                                               ; preds = %lean_inc.exit
  %72 = load i32, ptr %45, align 4, !tbaa !8
  %73 = icmp sgt i32 %72, 1
  br i1 %73, label %74, label %76, !prof !11

74:                                               ; preds = %71
  %75 = add nsw i32 %72, -1
  store i32 %75, ptr %45, align 4, !tbaa !8
  br label %lean_dec.exit

76:                                               ; preds = %71
  %.not.i29 = icmp eq i32 %72, 0
  br i1 %.not.i29, label %lean_dec.exit, label %77

77:                                               ; preds = %76
  tail call void @lean_dec_ref_cold(ptr noundef nonnull %45) #4
  br label %lean_dec.exit

lean_dec.exit:                                    ; preds = %77, %76, %74, %lean_inc.exit
  %78 = load ptr, ptr @l_Lean_instMonadCacheExceptTOfMonad___rarg___lambda__2___closed__1, align 8, !tbaa !4
  %79 = tail call ptr @lean_apply_4(ptr noundef %62, ptr noundef nonnull inttoptr (i64 1 to ptr), ptr noundef nonnull inttoptr (i64 1 to ptr), ptr noundef %78, ptr noundef %24) #4
  ret ptr %79
}